#include <math.h>
#include <stdio.h>
#include <stdlib.h>
#include <string.h>

int main(){
	int n,i,d;
	scanf("%d",&n);
	for(i=0;i>=0;i++){
		if(n==1){
			printf("End\n");
			break;
		}
		else if(n%2!=0){
			d=n*3+1;
			printf("%d*3+1=%d\n",n,d);
		}
		else if(n%2==0){
			d=n/2;
			printf("%d/2=%d\n",n,d);
		}
		n=d;
	}
	return 0;
}